target datalayout = "e-m:e-p270:32:32-p271:32:32-p272:64:64-i64:64-i128:128-f80:128-n8:16:32:64-S128"
target triple = "x86_64-pc-linux-gnu"

%struct.IDAMemRec = type { ptr, double, ptr, ptr, i32, double, double, ptr, i32, i32, ptr, ptr, i32, i32, [6 x ptr], [6 x double], [6 x double], [6 x double], [6 x double], [6 x double], ptr, ptr, ptr, ptr, ptr, ptr, ptr, ptr, ptr, ptr, ptr, ptr, ptr, ptr, ptr, ptr, ptr, double, ptr, ptr, i32, i32, i32, i32, i32, i32, i32, i32, double, double, double, i32, double, i32, i32, i32, i32, i32, double, double, double, double, double, double, double, double, double, double, double, double, double, double, double, double, i32, i32, i32, i32, i64, double, double, double, double, double, double, double, double, double, i64, i64, i64, i64, i64, i64, i64, i64, i64, i64, i64, double, i32, i32, i32, i32, i32, ptr, i32, ptr, ptr, ptr, ptr, ptr, ptr, ptr, double, i32, ptr, i32, ptr, ptr, double, double, double, ptr, ptr, ptr, double, double, i32, i32, i64, ptr, i32, [6 x double], [5 x double], [6 x ptr], [6 x ptr] }

; Function Attrs: nounwind uwtable
define void @IDAFree(ptr noundef %0) #0 {
  %2 = alloca ptr, align 8
  %3 = alloca ptr, align 8
  %4 = alloca i32, align 4
  store ptr %0, ptr %2, align 8, !tbaa !73
  call void @llvm.lifetime.start.p0(i64 8, ptr %3) #10
  %5 = load ptr, ptr %2, align 8, !tbaa !73
  %6 = load ptr, ptr %5, align 8, !tbaa !73
  %7 = icmp eq ptr %6, null
  br i1 %7, label %8, label %9

8:                                                ; preds = %1
  store i32 1, ptr %4, align 4
  br label %77

9:                                                ; preds = %1
  %10 = load ptr, ptr %2, align 8, !tbaa !73
  %11 = load ptr, ptr %10, align 8, !tbaa !73
  store ptr %11, ptr %3, align 8, !tbaa !8
  %12 = load ptr, ptr %3, align 8, !tbaa !8
  call void @IDAFreeVectors(ptr noundef %12)
  %13 = load ptr, ptr %3, align 8, !tbaa !8
  %14 = getelementptr inbounds nuw %struct.IDAMemRec, ptr %13, i32 0, i32 106
  %15 = load i32, ptr %14, align 8, !tbaa !63
  %16 = icmp ne i32 %15, 0
  br i1 %16, label %17, label %26

17:                                               ; preds = %9
  %18 = load ptr, ptr %3, align 8, !tbaa !8
  %19 = getelementptr inbounds nuw %struct.IDAMemRec, ptr %18, i32 0, i32 105
  %20 = load ptr, ptr %19, align 8, !tbaa !62
  %21 = call i32 @SUNNonlinSolFree(ptr noundef %20)
  %22 = load ptr, ptr %3, align 8, !tbaa !8
  %23 = getelementptr inbounds nuw %struct.IDAMemRec, ptr %22, i32 0, i32 106
  store i32 0, ptr %23, align 8, !tbaa !63
  %24 = load ptr, ptr %3, align 8, !tbaa !8
  %25 = getelementptr inbounds nuw %struct.IDAMemRec, ptr %24, i32 0, i32 105
  store ptr null, ptr %25, align 8, !tbaa !62
  br label %26

26:                                               ; preds = %17, %9
  %27 = load ptr, ptr %3, align 8, !tbaa !8
  %28 = getelementptr inbounds nuw %struct.IDAMemRec, ptr %27, i32 0, i32 112
  %29 = load ptr, ptr %28, align 8, !tbaa !89
  %30 = icmp ne ptr %29, null
  br i1 %30, label %31, label %37

31:                                               ; preds = %26
  %32 = load ptr, ptr %3, align 8, !tbaa !8
  %33 = getelementptr inbounds nuw %struct.IDAMemRec, ptr %32, i32 0, i32 112
  %34 = load ptr, ptr %33, align 8, !tbaa !89
  %35 = load ptr, ptr %3, align 8, !tbaa !8
  %36 = call i32 %34(ptr noundef %35)
  br label %37

37:                                               ; preds = %31, %26
  %38 = load ptr, ptr %3, align 8, !tbaa !8
  %39 = getelementptr inbounds nuw %struct.IDAMemRec, ptr %38, i32 0, i32 117
  %40 = load i32, ptr %39, align 8, !tbaa !110
  %41 = icmp sgt i32 %40, 0
  br i1 %41, label %42, label %73

42:                                               ; preds = %37
  %43 = load ptr, ptr %3, align 8, !tbaa !8
  %44 = getelementptr inbounds nuw %struct.IDAMemRec, ptr %43, i32 0, i32 123
  %45 = load ptr, ptr %44, align 8, !tbaa !104
  call void @free(ptr noundef %45) #10
  %46 = load ptr, ptr %3, align 8, !tbaa !8
  %47 = getelementptr inbounds nuw %struct.IDAMemRec, ptr %46, i32 0, i32 123
  store ptr null, ptr %47, align 8, !tbaa !104
  %48 = load ptr, ptr %3, align 8, !tbaa !8
  %49 = getelementptr inbounds nuw %struct.IDAMemRec, ptr %48, i32 0, i32 124
  %50 = load ptr, ptr %49, align 8, !tbaa !105
  call void @free(ptr noundef %50) #10
  %51 = load ptr, ptr %3, align 8, !tbaa !8
  %52 = getelementptr inbounds nuw %struct.IDAMemRec, ptr %51, i32 0, i32 124
  store ptr null, ptr %52, align 8, !tbaa !105
  %53 = load ptr, ptr %3, align 8, !tbaa !8
  %54 = getelementptr inbounds nuw %struct.IDAMemRec, ptr %53, i32 0, i32 125
  %55 = load ptr, ptr %54, align 8, !tbaa !106
  call void @free(ptr noundef %55) #10
  %56 = load ptr, ptr %3, align 8, !tbaa !8
  %57 = getelementptr inbounds nuw %struct.IDAMemRec, ptr %56, i32 0, i32 125
  store ptr null, ptr %57, align 8, !tbaa !106
  %58 = load ptr, ptr %3, align 8, !tbaa !8
  %59 = getelementptr inbounds nuw %struct.IDAMemRec, ptr %58, i32 0, i32 118
  %60 = load ptr, ptr %59, align 8, !tbaa !107
  call void @free(ptr noundef %60) #10
  %61 = load ptr, ptr %3, align 8, !tbaa !8
  %62 = getelementptr inbounds nuw %struct.IDAMemRec, ptr %61, i32 0, i32 118
  store ptr null, ptr %62, align 8, !tbaa !107
  %63 = load ptr, ptr %3, align 8, !tbaa !8
  %64 = getelementptr inbounds nuw %struct.IDAMemRec, ptr %63, i32 0, i32 119
  %65 = load ptr, ptr %64, align 8, !tbaa !108
  call void @free(ptr noundef %65) #10
  %66 = load ptr, ptr %3, align 8, !tbaa !8
  %67 = getelementptr inbounds nuw %struct.IDAMemRec, ptr %66, i32 0, i32 119
  store ptr null, ptr %67, align 8, !tbaa !108
  %68 = load ptr, ptr %3, align 8, !tbaa !8
  %69 = getelementptr inbounds nuw %struct.IDAMemRec, ptr %68, i32 0, i32 131
  %70 = load ptr, ptr %69, align 8, !tbaa !111
  call void @free(ptr noundef %70) #10
  %71 = load ptr, ptr %3, align 8, !tbaa !8
  %72 = getelementptr inbounds nuw %struct.IDAMemRec, ptr %71, i32 0, i32 131
  store ptr null, ptr %72, align 8, !tbaa !111
  br label %73

73:                                               ; preds = %42, %37
  %74 = load ptr, ptr %2, align 8, !tbaa !73
  %75 = load ptr, ptr %74, align 8, !tbaa !73
  call void @free(ptr noundef %75) #10
  %76 = load ptr, ptr %2, align 8, !tbaa !73
  store ptr null, ptr %76, align 8, !tbaa !73
  store i32 0, ptr %4, align 4
  br label %77

77:                                               ; preds = %73, %8
  call void @llvm.lifetime.end.p0(i64 8, ptr %3) #10
  %78 = load i32, ptr %4, align 4
  switch i32 %78, label %80 [
    i32 0, label %79
    i32 1, label %79
  ]

79:                                               ; preds = %77, %77
  ret void

80:                                               ; preds = %77
  unreachable
}