; Function Attrs: nounwind uwtable
define void @IDAFree(ptr noundef captures(none) %0) local_unnamed_addr #0 {
  %2 = load ptr, ptr %0, align 8, !tbaa !157
  %3 = icmp eq ptr %2, null
  br i1 %3, label %35, label %4

4:                                                ; preds = %1
  tail call fastcc void @IDAFreeVectors(ptr noundef %2)
  %5 = getelementptr inbounds nuw i8, ptr %2, i64 992
  %6 = load i32, ptr %5, align 8, !tbaa !81
  %.not = icmp eq i32 %6, 0
  br i1 %.not, label %11, label %7

7:                                                ; preds = %4
  %8 = getelementptr inbounds nuw i8, ptr %2, i64 984
  %9 = load ptr, ptr %8, align 8, !tbaa !140
  %10 = tail call i32 @SUNNonlinSolFree(ptr noundef %9) #13
  store i32 0, ptr %5, align 8, !tbaa !81
  store ptr null, ptr %8, align 8, !tbaa !140
  br label %11

11:                                               ; preds = %7, %4
  %12 = getelementptr inbounds nuw i8, ptr %2, i64 1040
  %13 = load ptr, ptr %12, align 8, !tbaa !158
  %.not26 = icmp eq ptr %13, null
  br i1 %.not26, label %16, label %14

14:                                               ; preds = %11
  %15 = tail call i32 %13(ptr noundef nonnull %2) #13
  br label %16

16:                                               ; preds = %14, %11
  %17 = getelementptr inbounds nuw i8, ptr %2, i64 1080
  %18 = load i32, ptr %17, align 8, !tbaa !87
  %19 = icmp sgt i32 %18, 0
  br i1 %19, label %20, label %33

20:                                               ; preds = %16
  %21 = getelementptr inbounds nuw i8, ptr %2, i64 1128
  %22 = load ptr, ptr %21, align 8, !tbaa !105
  tail call void @free(ptr noundef %22) #13
  store ptr null, ptr %21, align 8, !tbaa !105
  %23 = getelementptr inbounds nuw i8, ptr %2, i64 1136
  %24 = load ptr, ptr %23, align 8, !tbaa !106
  tail call void @free(ptr noundef %24) #13
  store ptr null, ptr %23, align 8, !tbaa !106
  %25 = getelementptr inbounds nuw i8, ptr %2, i64 1144
  %26 = load ptr, ptr %25, align 8, !tbaa !107
  tail call void @free(ptr noundef %26) #13
  store ptr null, ptr %25, align 8, !tbaa !107
  %27 = getelementptr inbounds nuw i8, ptr %2, i64 1088
  %28 = load ptr, ptr %27, align 8, !tbaa !108
  tail call void @free(ptr noundef %28) #13
  store ptr null, ptr %27, align 8, !tbaa !108
  %29 = getelementptr inbounds nuw i8, ptr %2, i64 1096
  %30 = load ptr, ptr %29, align 8, !tbaa !109
  tail call void @free(ptr noundef %30) #13
  store ptr null, ptr %29, align 8, !tbaa !109
  %31 = getelementptr inbounds nuw i8, ptr %2, i64 1184
  %32 = load ptr, ptr %31, align 8, !tbaa !110
  tail call void @free(ptr noundef %32) #13
  store ptr null, ptr %31, align 8, !tbaa !110
  br label %33

33:                                               ; preds = %20, %16
  %34 = load ptr, ptr %0, align 8, !tbaa !157
  tail call void @free(ptr noundef %34) #13
  store ptr null, ptr %0, align 8, !tbaa !157
  br label %35

35:                                               ; preds = %1, %33
  ret void
}